	.file	"p500rand.cpp"
	.text
	.section	.text._ZSt23__is_constant_evaluatedv,"axG",@progbits,_ZSt23__is_constant_evaluatedv,comdat
	.weak	_ZSt23__is_constant_evaluatedv
	.type	_ZSt23__is_constant_evaluatedv, @function
_ZSt23__is_constant_evaluatedv:
.LFB1:
	.cfi_startproc
	endbr64
	pushq	%rbp
	.cfi_def_cfa_offset 16
	.cfi_offset 6, -16
	movq	%rsp, %rbp
	.cfi_def_cfa_register 6
	movl	$0, %eax
	popq	%rbp
	.cfi_def_cfa 7, 8
	ret
	.cfi_endproc
.LFE1:
	.size	_ZSt23__is_constant_evaluatedv, .-_ZSt23__is_constant_evaluatedv
	.section	.text._ZNSt11char_traitsIcE6lengthEPKc,"axG",@progbits,_ZNSt11char_traitsIcE6lengthEPKc,comdat
	.weak	_ZNSt11char_traitsIcE6lengthEPKc
	.type	_ZNSt11char_traitsIcE6lengthEPKc, @function
_ZNSt11char_traitsIcE6lengthEPKc:
.LFB115:
	.cfi_startproc
	endbr64
	pushq	%rbp
	.cfi_def_cfa_offset 16
	.cfi_offset 6, -16
	movq	%rsp, %rbp
	.cfi_def_cfa_register 6
	subq	$16, %rsp
	movq	%rdi, -8(%rbp)
	call	_ZSt23__is_constant_evaluatedv
	testb	%al, %al
	je	.L4
	movq	-8(%rbp), %rax
	movq	%rax, %rdi
	call	_ZN9__gnu_cxx11char_traitsIcE6lengthEPKc
	jmp	.L5
.L4:
	movq	-8(%rbp), %rax
	movq	%rax, %rdi
	call	strlen@PLT
	nop
.L5:
	leave
	.cfi_def_cfa 7, 8
	ret
	.cfi_endproc
.LFE115:
	.size	_ZNSt11char_traitsIcE6lengthEPKc, .-_ZNSt11char_traitsIcE6lengthEPKc
#APP
	.globl _ZSt21ios_base_library_initv
#NO_APP
	.section	.text._ZSt3loge,"axG",@progbits,_ZSt3loge,comdat
	.weak	_ZSt3loge
	.type	_ZSt3loge, @function
_ZSt3loge:
.LFB2044:
	.cfi_startproc
	endbr64
	pushq	%rbp
	.cfi_def_cfa_offset 16
	.cfi_offset 6, -16
	movq	%rsp, %rbp
	.cfi_def_cfa_register 6
	pushq	24(%rbp)
	pushq	16(%rbp)
	call	logl@PLT
	addq	$16, %rsp
	leave
	.cfi_def_cfa 7, 8
	ret
	.cfi_endproc
.LFE2044:
	.size	_ZSt3loge, .-_ZSt3loge
	.section	.text._ZNSt14numeric_limitsIjE3minEv,"axG",@progbits,_ZNSt14numeric_limitsIjE3minEv,comdat
	.weak	_ZNSt14numeric_limitsIjE3minEv
	.type	_ZNSt14numeric_limitsIjE3minEv, @function
_ZNSt14numeric_limitsIjE3minEv:
.LFB2325:
	.cfi_startproc
	endbr64
	pushq	%rbp
	.cfi_def_cfa_offset 16
	.cfi_offset 6, -16
	movq	%rsp, %rbp
	.cfi_def_cfa_register 6
	movl	$0, %eax
	popq	%rbp
	.cfi_def_cfa 7, 8
	ret
	.cfi_endproc
.LFE2325:
	.size	_ZNSt14numeric_limitsIjE3minEv, .-_ZNSt14numeric_limitsIjE3minEv
	.section	.rodata
.LC1:
	.string	"default"
	.section	.text._ZNSt13random_deviceC2Ev,"axG",@progbits,_ZNSt13random_deviceC5Ev,comdat
	.align 2
	.weak	_ZNSt13random_deviceC2Ev
	.type	_ZNSt13random_deviceC2Ev, @function
_ZNSt13random_deviceC2Ev:
.LFB3050:
	.cfi_startproc
	.cfi_personality 0x9b,DW.ref.__gxx_personality_v0
	.cfi_lsda 0x1b,.LLSDA3050
	endbr64
	pushq	%rbp
	.cfi_def_cfa_offset 16
	.cfi_offset 6, -16
	movq	%rsp, %rbp
	.cfi_def_cfa_register 6
	pushq	%rbx
	subq	$88, %rsp
	.cfi_offset 3, -24
	movq	%rdi, -88(%rbp)
	movq	%fs:40, %rax
	movq	%rax, -24(%rbp)
	xorl	%eax, %eax
	leaq	-73(%rbp), %rax
	movq	%rax, -72(%rbp)
	nop
	nop
	leaq	-73(%rbp), %rdx
	leaq	-64(%rbp), %rax
	leaq	.LC1(%rip), %rcx
	movq	%rcx, %rsi
	movq	%rax, %rdi
.LEHB0:
	call	_ZNSt7__cxx1112basic_stringIcSt11char_traitsIcESaIcEEC1IS3_EEPKcRKS3_
.LEHE0:
	leaq	-64(%rbp), %rdx
	movq	-88(%rbp), %rax
	movq	%rdx, %rsi
	movq	%rax, %rdi
.LEHB1:
	call	_ZNSt13random_device7_M_initERKNSt7__cxx1112basic_stringIcSt11char_traitsIcESaIcEEE@PLT
.LEHE1:
	leaq	-64(%rbp), %rax
	movq	%rax, %rdi
	call	_ZNSt7__cxx1112basic_stringIcSt11char_traitsIcESaIcEED1Ev@PLT
	leaq	-73(%rbp), %rax
	movq	%rax, %rdi
	call	_ZNSt15__new_allocatorIcED2Ev
	nop
	nop
	movq	-24(%rbp), %rax
	subq	%fs:40, %rax
	je	.L14
	jmp	.L17
.L16:
	endbr64
	movq	%rax, %rbx
	leaq	-64(%rbp), %rax
	movq	%rax, %rdi
	call	_ZNSt7__cxx1112basic_stringIcSt11char_traitsIcESaIcEED1Ev@PLT
	jmp	.L12
.L15:
	endbr64
	movq	%rax, %rbx
.L12:
	leaq	-73(%rbp), %rax
	movq	%rax, %rdi
	call	_ZNSt15__new_allocatorIcED2Ev
	nop
	movq	%rbx, %rax
	movq	-24(%rbp), %rdx
	subq	%fs:40, %rdx
	je	.L13
	call	__stack_chk_fail@PLT
.L13:
	movq	%rax, %rdi
.LEHB2:
	call	_Unwind_Resume@PLT
.LEHE2:
.L17:
	call	__stack_chk_fail@PLT
.L14:
	movq	-8(%rbp), %rbx
	leave
	.cfi_def_cfa 7, 8
	ret
	.cfi_endproc
.LFE3050:
	.globl	__gxx_personality_v0
	.section	.gcc_except_table._ZNSt13random_deviceC2Ev,"aG",@progbits,_ZNSt13random_deviceC5Ev,comdat
.LLSDA3050:
	.byte	0xff
	.byte	0xff
	.byte	0x1
	.uleb128 .LLSDACSE3050-.LLSDACSB3050
.LLSDACSB3050:
	.uleb128 .LEHB0-.LFB3050
	.uleb128 .LEHE0-.LEHB0
	.uleb128 .L15-.LFB3050
	.uleb128 0
	.uleb128 .LEHB1-.LFB3050
	.uleb128 .LEHE1-.LEHB1
	.uleb128 .L16-.LFB3050
	.uleb128 0
	.uleb128 .LEHB2-.LFB3050
	.uleb128 .LEHE2-.LEHB2
	.uleb128 0
	.uleb128 0
.LLSDACSE3050:
	.section	.text._ZNSt13random_deviceC2Ev,"axG",@progbits,_ZNSt13random_deviceC5Ev,comdat
	.size	_ZNSt13random_deviceC2Ev, .-_ZNSt13random_deviceC2Ev
	.weak	_ZNSt13random_deviceC1Ev
	.set	_ZNSt13random_deviceC1Ev,_ZNSt13random_deviceC2Ev
	.section	.text._ZNSt13random_deviceD2Ev,"axG",@progbits,_ZNSt13random_deviceD5Ev,comdat
	.align 2
	.weak	_ZNSt13random_deviceD2Ev
	.type	_ZNSt13random_deviceD2Ev, @function
_ZNSt13random_deviceD2Ev:
.LFB3056:
	.cfi_startproc
	.cfi_personality 0x9b,DW.ref.__gxx_personality_v0
	.cfi_lsda 0x1b,.LLSDA3056
	endbr64
	pushq	%rbp
	.cfi_def_cfa_offset 16
	.cfi_offset 6, -16
	movq	%rsp, %rbp
	.cfi_def_cfa_register 6
	subq	$16, %rsp
	movq	%rdi, -8(%rbp)
	movq	-8(%rbp), %rax
	movq	%rax, %rdi
	call	_ZNSt13random_device7_M_finiEv@PLT
	nop
	leave
	.cfi_def_cfa 7, 8
	ret
	.cfi_endproc
.LFE3056:
	.section	.gcc_except_table._ZNSt13random_deviceD2Ev,"aG",@progbits,_ZNSt13random_deviceD5Ev,comdat
.LLSDA3056:
	.byte	0xff
	.byte	0xff
	.byte	0x1
	.uleb128 .LLSDACSE3056-.LLSDACSB3056
.LLSDACSB3056:
.LLSDACSE3056:
	.section	.text._ZNSt13random_deviceD2Ev,"axG",@progbits,_ZNSt13random_deviceD5Ev,comdat
	.size	_ZNSt13random_deviceD2Ev, .-_ZNSt13random_deviceD2Ev
	.weak	_ZNSt13random_deviceD1Ev
	.set	_ZNSt13random_deviceD1Ev,_ZNSt13random_deviceD2Ev
	.section	.text._ZNSt13random_device3minEv,"axG",@progbits,_ZNSt13random_device3minEv,comdat
	.weak	_ZNSt13random_device3minEv
	.type	_ZNSt13random_device3minEv, @function
_ZNSt13random_device3minEv:
.LFB3058:
	.cfi_startproc
	endbr64
	pushq	%rbp
	.cfi_def_cfa_offset 16
	.cfi_offset 6, -16
	movq	%rsp, %rbp
	.cfi_def_cfa_register 6
	call	_ZNSt14numeric_limitsIjE3minEv
	popq	%rbp
	.cfi_def_cfa 7, 8
	ret
	.cfi_endproc
.LFE3058:
	.size	_ZNSt13random_device3minEv, .-_ZNSt13random_device3minEv
	.section	.text._ZNSt13random_deviceclEv,"axG",@progbits,_ZNSt13random_deviceclEv,comdat
	.align 2
	.weak	_ZNSt13random_deviceclEv
	.type	_ZNSt13random_deviceclEv, @function
_ZNSt13random_deviceclEv:
.LFB3061:
	.cfi_startproc
	endbr64
	pushq	%rbp
	.cfi_def_cfa_offset 16
	.cfi_offset 6, -16
	movq	%rsp, %rbp
	.cfi_def_cfa_register 6
	subq	$16, %rsp
	movq	%rdi, -8(%rbp)
	movq	-8(%rbp), %rax
	movq	%rax, %rdi
	call	_ZNSt13random_device9_M_getvalEv@PLT
	leave
	.cfi_def_cfa 7, 8
	ret
	.cfi_endproc
.LFE3061:
	.size	_ZNSt13random_deviceclEv, .-_ZNSt13random_deviceclEv
	.section	.rodata
.LC2:
	.string	"\351\232\217\346\234\2720~1000\347\232\204\346\225\264\346\225\260"
.LC5:
	.string	"\351\232\217\346\234\2720.0~100.0\347\232\204\346\265\256\347\202\271\346\225\260"
	.text
	.globl	_Z9randomNumv
	.type	_Z9randomNumv, @function
_Z9randomNumv:
.LFB3669:
	.cfi_startproc
	.cfi_personality 0x9b,DW.ref.__gxx_personality_v0
	.cfi_lsda 0x1b,.LLSDA3669
	endbr64
	pushq	%rbp
	.cfi_def_cfa_offset 16
	.cfi_offset 6, -16
	movq	%rsp, %rbp
	.cfi_def_cfa_register 6
	pushq	%rbx
	subq	$4096, %rsp
	orq	$0, (%rsp)
	subq	$4096, %rsp
	orq	$0, (%rsp)
	subq	$1864, %rsp
	.cfi_offset 3, -24
	movq	%fs:40, %rax
	movq	%rax, -24(%rbp)
	xorl	%eax, %eax
	leaq	-10032(%rbp), %rax
	movq	%rax, %rdi
.LEHB3:
	call	_ZNSt13random_deviceC1Ev
.LEHE3:
	leaq	-10056(%rbp), %rax
	movl	$1000, %edx
	movl	$0, %esi
	movq	%rax, %rdi
.LEHB4:
	call	_ZNSt24uniform_int_distributionIiEC1Eii
	leaq	.LC2(%rip), %rax
	movq	%rax, %rsi
	leaq	_ZSt4cout(%rip), %rax
	movq	%rax, %rdi
	call	_ZStlsISt11char_traitsIcEERSt13basic_ostreamIcT_ES5_PKc@PLT
	movq	%rax, %rbx
	leaq	-10032(%rbp), %rdx
	leaq	-10056(%rbp), %rax
	movq	%rdx, %rsi
	movq	%rax, %rdi
	call	_ZNSt24uniform_int_distributionIiEclISt13random_deviceEEiRT_
	movl	%eax, %esi
	movq	%rbx, %rdi
	call	_ZNSolsEi@PLT
	movq	_ZSt4endlIcSt11char_traitsIcEERSt13basic_ostreamIT_T0_ES6_@GOTPCREL(%rip), %rdx
	movq	%rdx, %rsi
	movq	%rax, %rdi
	call	_ZNSolsEPFRSoS_E@PLT
	leaq	-5024(%rbp), %rax
	movq	%rax, %rdi
	call	_ZNSt13random_deviceC1Ev
.LEHE4:
	movsd	.LC3(%rip), %xmm0
	leaq	-10048(%rbp), %rax
	movapd	%xmm0, %xmm1
	movq	.LC4(%rip), %rdx
	movq	%rdx, %xmm0
	movq	%rax, %rdi
.LEHB5:
	call	_ZNSt25uniform_real_distributionIdEC1Edd
	leaq	.LC5(%rip), %rax
	movq	%rax, %rsi
	leaq	_ZSt4cout(%rip), %rax
	movq	%rax, %rdi
	call	_ZStlsISt11char_traitsIcEERSt13basic_ostreamIcT_ES5_PKc@PLT
	movq	%rax, %rbx
	leaq	-5024(%rbp), %rdx
	leaq	-10048(%rbp), %rax
	movq	%rdx, %rsi
	movq	%rax, %rdi
	call	_ZNSt25uniform_real_distributionIdEclISt13random_deviceEEdRT_
	movq	%xmm0, %rax
	movq	%rax, %xmm0
	movq	%rbx, %rdi
	call	_ZNSolsEd@PLT
	movq	_ZSt4endlIcSt11char_traitsIcEERSt13basic_ostreamIT_T0_ES6_@GOTPCREL(%rip), %rdx
	movq	%rdx, %rsi
	movq	%rax, %rdi
	call	_ZNSolsEPFRSoS_E@PLT
.LEHE5:
	leaq	-5024(%rbp), %rax
	movq	%rax, %rdi
	call	_ZNSt13random_deviceD1Ev
	leaq	-10032(%rbp), %rax
	movq	%rax, %rdi
	call	_ZNSt13random_deviceD1Ev
	movq	-24(%rbp), %rax
	subq	%fs:40, %rax
	je	.L27
	jmp	.L30
.L29:
	endbr64
	movq	%rax, %rbx
	leaq	-5024(%rbp), %rax
	movq	%rax, %rdi
	call	_ZNSt13random_deviceD1Ev
	jmp	.L25
.L28:
	endbr64
	movq	%rax, %rbx
.L25:
	leaq	-10032(%rbp), %rax
	movq	%rax, %rdi
	call	_ZNSt13random_deviceD1Ev
	movq	%rbx, %rax
	movq	-24(%rbp), %rdx
	subq	%fs:40, %rdx
	je	.L26
	call	__stack_chk_fail@PLT
.L26:
	movq	%rax, %rdi
.LEHB6:
	call	_Unwind_Resume@PLT
.LEHE6:
.L30:
	call	__stack_chk_fail@PLT
.L27:
	movq	-8(%rbp), %rbx
	leave
	.cfi_def_cfa 7, 8
	ret
	.cfi_endproc
.LFE3669:
	.section	.gcc_except_table,"a",@progbits
.LLSDA3669:
	.byte	0xff
	.byte	0xff
	.byte	0x1
	.uleb128 .LLSDACSE3669-.LLSDACSB3669
.LLSDACSB3669:
	.uleb128 .LEHB3-.LFB3669
	.uleb128 .LEHE3-.LEHB3
	.uleb128 0
	.uleb128 0
	.uleb128 .LEHB4-.LFB3669
	.uleb128 .LEHE4-.LEHB4
	.uleb128 .L28-.LFB3669
	.uleb128 0
	.uleb128 .LEHB5-.LFB3669
	.uleb128 .LEHE5-.LEHB5
	.uleb128 .L29-.LFB3669
	.uleb128 0
	.uleb128 .LEHB6-.LFB3669
	.uleb128 .LEHE6-.LEHB6
	.uleb128 0
	.uleb128 0
.LLSDACSE3669:
	.text
	.size	_Z9randomNumv, .-_Z9randomNumv
	.globl	main
	.type	main, @function
main:
.LFB3670:
	.cfi_startproc
	endbr64
	pushq	%rbp
	.cfi_def_cfa_offset 16
	.cfi_offset 6, -16
	movq	%rsp, %rbp
	.cfi_def_cfa_register 6
	call	_Z9randomNumv
	movl	$0, %eax
	popq	%rbp
	.cfi_def_cfa 7, 8
	ret
	.cfi_endproc
.LFE3670:
	.size	main, .-main
	.section	.text._ZN9__gnu_cxx11char_traitsIcE6lengthEPKc,"axG",@progbits,_ZN9__gnu_cxx11char_traitsIcE6lengthEPKc,comdat
	.align 2
	.weak	_ZN9__gnu_cxx11char_traitsIcE6lengthEPKc
	.type	_ZN9__gnu_cxx11char_traitsIcE6lengthEPKc, @function
_ZN9__gnu_cxx11char_traitsIcE6lengthEPKc:
.LFB3671:
	.cfi_startproc
	endbr64
	pushq	%rbp
	.cfi_def_cfa_offset 16
	.cfi_offset 6, -16
	movq	%rsp, %rbp
	.cfi_def_cfa_register 6
	subq	$48, %rsp
	movq	%rdi, -40(%rbp)
	movq	%fs:40, %rax
	movq	%rax, -8(%rbp)
	xorl	%eax, %eax
	movq	$0, -16(%rbp)
	jmp	.L34
.L35:
	addq	$1, -16(%rbp)
.L34:
	movb	$0, -17(%rbp)
	movq	-40(%rbp), %rdx
	movq	-16(%rbp), %rax
	addq	%rax, %rdx
	leaq	-17(%rbp), %rax
	movq	%rax, %rsi
	movq	%rdx, %rdi
	call	_ZN9__gnu_cxx11char_traitsIcE2eqERKcS3_
	xorl	$1, %eax
	testb	%al, %al
	jne	.L35
	movq	-16(%rbp), %rax
	movq	-8(%rbp), %rdx
	subq	%fs:40, %rdx
	je	.L37
	call	__stack_chk_fail@PLT
.L37:
	leave
	.cfi_def_cfa 7, 8
	ret
	.cfi_endproc
.LFE3671:
	.size	_ZN9__gnu_cxx11char_traitsIcE6lengthEPKc, .-_ZN9__gnu_cxx11char_traitsIcE6lengthEPKc
	.section	.text._ZNSt7__cxx1112basic_stringIcSt11char_traitsIcESaIcEE12_Alloc_hiderD2Ev,"axG",@progbits,_ZNSt7__cxx1112basic_stringIcSt11char_traitsIcESaIcEE12_Alloc_hiderD5Ev,comdat
	.align 2
	.weak	_ZNSt7__cxx1112basic_stringIcSt11char_traitsIcESaIcEE12_Alloc_hiderD2Ev
	.type	_ZNSt7__cxx1112basic_stringIcSt11char_traitsIcESaIcEE12_Alloc_hiderD2Ev, @function
_ZNSt7__cxx1112basic_stringIcSt11char_traitsIcESaIcEE12_Alloc_hiderD2Ev:
.LFB3780:
	.cfi_startproc
	endbr64
	pushq	%rbp
	.cfi_def_cfa_offset 16
	.cfi_offset 6, -16
	movq	%rsp, %rbp
	.cfi_def_cfa_register 6
	subq	$32, %rsp
	movq	%rdi, -24(%rbp)
	movq	-24(%rbp), %rax
	movq	%rax, -8(%rbp)
	movq	-8(%rbp), %rax
	movq	%rax, %rdi
	call	_ZNSt15__new_allocatorIcED2Ev
	nop
	nop
	leave
	.cfi_def_cfa 7, 8
	ret
	.cfi_endproc
.LFE3780:
	.size	_ZNSt7__cxx1112basic_stringIcSt11char_traitsIcESaIcEE12_Alloc_hiderD2Ev, .-_ZNSt7__cxx1112basic_stringIcSt11char_traitsIcESaIcEE12_Alloc_hiderD2Ev
	.weak	_ZNSt7__cxx1112basic_stringIcSt11char_traitsIcESaIcEE12_Alloc_hiderD1Ev
	.set	_ZNSt7__cxx1112basic_stringIcSt11char_traitsIcESaIcEE12_Alloc_hiderD1Ev,_ZNSt7__cxx1112basic_stringIcSt11char_traitsIcESaIcEE12_Alloc_hiderD2Ev
	.section	.rodata
	.align 8
.LC6:
	.string	"basic_string: construction from null is not valid"
	.section	.text._ZNSt7__cxx1112basic_stringIcSt11char_traitsIcESaIcEEC2IS3_EEPKcRKS3_,"axG",@progbits,_ZNSt7__cxx1112basic_stringIcSt11char_traitsIcESaIcEEC5IS3_EEPKcRKS3_,comdat
	.align 2
	.weak	_ZNSt7__cxx1112basic_stringIcSt11char_traitsIcESaIcEEC2IS3_EEPKcRKS3_
	.type	_ZNSt7__cxx1112basic_stringIcSt11char_traitsIcESaIcEEC2IS3_EEPKcRKS3_, @function
_ZNSt7__cxx1112basic_stringIcSt11char_traitsIcESaIcEEC2IS3_EEPKcRKS3_:
.LFB3977:
	.cfi_startproc
	.cfi_personality 0x9b,DW.ref.__gxx_personality_v0
	.cfi_lsda 0x1b,.LLSDA3977
	endbr64
	pushq	%rbp
	.cfi_def_cfa_offset 16
	.cfi_offset 6, -16
	movq	%rsp, %rbp
	.cfi_def_cfa_register 6
	pushq	%rbx
	subq	$56, %rsp
	.cfi_offset 3, -24
	movq	%rdi, -40(%rbp)
	movq	%rsi, -48(%rbp)
	movq	%rdx, -56(%rbp)
	movq	-40(%rbp), %rbx
	movq	-40(%rbp), %rax
	movq	%rax, %rdi
	call	_ZNSt7__cxx1112basic_stringIcSt11char_traitsIcESaIcEE13_M_local_dataEv@PLT
	movq	%rax, %rcx
	movq	-56(%rbp), %rax
	movq	%rax, %rdx
	movq	%rcx, %rsi
	movq	%rbx, %rdi
	call	_ZNSt7__cxx1112basic_stringIcSt11char_traitsIcESaIcEE12_Alloc_hiderC1EPcRKS3_@PLT
	cmpq	$0, -48(%rbp)
	jne	.L40
	leaq	.LC6(%rip), %rax
	movq	%rax, %rdi
.LEHB7:
	call	_ZSt19__throw_logic_errorPKc@PLT
.L40:
	movq	-48(%rbp), %rax
	movq	%rax, %rdi
	call	_ZNSt11char_traitsIcE6lengthEPKc
	movq	-48(%rbp), %rdx
	addq	%rdx, %rax
	movq	%rax, -24(%rbp)
	movq	-24(%rbp), %rdx
	movq	-48(%rbp), %rcx
	movq	-40(%rbp), %rax
	movq	%rcx, %rsi
	movq	%rax, %rdi
	call	_ZNSt7__cxx1112basic_stringIcSt11char_traitsIcESaIcEE12_M_constructIPKcEEvT_S8_St20forward_iterator_tag
.LEHE7:
	jmp	.L43
.L42:
	endbr64
	movq	%rax, %rbx
	movq	-40(%rbp), %rax
	movq	%rax, %rdi
	call	_ZNSt7__cxx1112basic_stringIcSt11char_traitsIcESaIcEE12_Alloc_hiderD1Ev
	movq	%rbx, %rax
	movq	%rax, %rdi
.LEHB8:
	call	_Unwind_Resume@PLT
.LEHE8:
.L43:
	movq	-8(%rbp), %rbx
	leave
	.cfi_def_cfa 7, 8
	ret
	.cfi_endproc
.LFE3977:
	.section	.gcc_except_table
.LLSDA3977:
	.byte	0xff
	.byte	0xff
	.byte	0x1
	.uleb128 .LLSDACSE3977-.LLSDACSB3977
.LLSDACSB3977:
	.uleb128 .LEHB7-.LFB3977
	.uleb128 .LEHE7-.LEHB7
	.uleb128 .L42-.LFB3977
	.uleb128 0
	.uleb128 .LEHB8-.LFB3977
	.uleb128 .LEHE8-.LEHB8
	.uleb128 0
	.uleb128 0
.LLSDACSE3977:
	.section	.text._ZNSt7__cxx1112basic_stringIcSt11char_traitsIcESaIcEEC2IS3_EEPKcRKS3_,"axG",@progbits,_ZNSt7__cxx1112basic_stringIcSt11char_traitsIcESaIcEEC5IS3_EEPKcRKS3_,comdat
	.size	_ZNSt7__cxx1112basic_stringIcSt11char_traitsIcESaIcEEC2IS3_EEPKcRKS3_, .-_ZNSt7__cxx1112basic_stringIcSt11char_traitsIcESaIcEEC2IS3_EEPKcRKS3_
	.weak	_ZNSt7__cxx1112basic_stringIcSt11char_traitsIcESaIcEEC1IS3_EEPKcRKS3_
	.set	_ZNSt7__cxx1112basic_stringIcSt11char_traitsIcESaIcEEC1IS3_EEPKcRKS3_,_ZNSt7__cxx1112basic_stringIcSt11char_traitsIcESaIcEEC2IS3_EEPKcRKS3_
	.section	.text._ZNSt24uniform_int_distributionIiEC2Eii,"axG",@progbits,_ZNSt24uniform_int_distributionIiEC5Eii,comdat
	.align 2
	.weak	_ZNSt24uniform_int_distributionIiEC2Eii
	.type	_ZNSt24uniform_int_distributionIiEC2Eii, @function
_ZNSt24uniform_int_distributionIiEC2Eii:
.LFB3993:
	.cfi_startproc
	endbr64
	pushq	%rbp
	.cfi_def_cfa_offset 16
	.cfi_offset 6, -16
	movq	%rsp, %rbp
	.cfi_def_cfa_register 6
	subq	$16, %rsp
	movq	%rdi, -8(%rbp)
	movl	%esi, -12(%rbp)
	movl	%edx, -16(%rbp)
	movq	-8(%rbp), %rax
	movl	-16(%rbp), %edx
	movl	-12(%rbp), %ecx
	movl	%ecx, %esi
	movq	%rax, %rdi
	call	_ZNSt24uniform_int_distributionIiE10param_typeC1Eii
	nop
	leave
	.cfi_def_cfa 7, 8
	ret
	.cfi_endproc
.LFE3993:
	.size	_ZNSt24uniform_int_distributionIiEC2Eii, .-_ZNSt24uniform_int_distributionIiEC2Eii
	.weak	_ZNSt24uniform_int_distributionIiEC1Eii
	.set	_ZNSt24uniform_int_distributionIiEC1Eii,_ZNSt24uniform_int_distributionIiEC2Eii
	.section	.text._ZNSt24uniform_int_distributionIiEclISt13random_deviceEEiRT_,"axG",@progbits,_ZNSt24uniform_int_distributionIiEclISt13random_deviceEEiRT_,comdat
	.align 2
	.weak	_ZNSt24uniform_int_distributionIiEclISt13random_deviceEEiRT_
	.type	_ZNSt24uniform_int_distributionIiEclISt13random_deviceEEiRT_, @function
_ZNSt24uniform_int_distributionIiEclISt13random_deviceEEiRT_:
.LFB3996:
	.cfi_startproc
	endbr64
	pushq	%rbp
	.cfi_def_cfa_offset 16
	.cfi_offset 6, -16
	movq	%rsp, %rbp
	.cfi_def_cfa_register 6
	subq	$16, %rsp
	movq	%rdi, -8(%rbp)
	movq	%rsi, -16(%rbp)
	movq	-8(%rbp), %rdx
	movq	-16(%rbp), %rcx
	movq	-8(%rbp), %rax
	movq	%rcx, %rsi
	movq	%rax, %rdi
	call	_ZNSt24uniform_int_distributionIiEclISt13random_deviceEEiRT_RKNS0_10param_typeE
	leave
	.cfi_def_cfa 7, 8
	ret
	.cfi_endproc
.LFE3996:
	.size	_ZNSt24uniform_int_distributionIiEclISt13random_deviceEEiRT_, .-_ZNSt24uniform_int_distributionIiEclISt13random_deviceEEiRT_
	.section	.text._ZNSt25uniform_real_distributionIdEC2Edd,"axG",@progbits,_ZNSt25uniform_real_distributionIdEC5Edd,comdat
	.align 2
	.weak	_ZNSt25uniform_real_distributionIdEC2Edd
	.type	_ZNSt25uniform_real_distributionIdEC2Edd, @function
_ZNSt25uniform_real_distributionIdEC2Edd:
.LFB4000:
	.cfi_startproc
	endbr64
	pushq	%rbp
	.cfi_def_cfa_offset 16
	.cfi_offset 6, -16
	movq	%rsp, %rbp
	.cfi_def_cfa_register 6
	subq	$32, %rsp
	movq	%rdi, -8(%rbp)
	movsd	%xmm0, -16(%rbp)
	movsd	%xmm1, -24(%rbp)
	movq	-8(%rbp), %rax
	movsd	-24(%rbp), %xmm0
	movq	-16(%rbp), %rdx
	movapd	%xmm0, %xmm1
	movq	%rdx, %xmm0
	movq	%rax, %rdi
	call	_ZNSt25uniform_real_distributionIdE10param_typeC1Edd
	nop
	leave
	.cfi_def_cfa 7, 8
	ret
	.cfi_endproc
.LFE4000:
	.size	_ZNSt25uniform_real_distributionIdEC2Edd, .-_ZNSt25uniform_real_distributionIdEC2Edd
	.weak	_ZNSt25uniform_real_distributionIdEC1Edd
	.set	_ZNSt25uniform_real_distributionIdEC1Edd,_ZNSt25uniform_real_distributionIdEC2Edd
	.section	.text._ZNSt25uniform_real_distributionIdEclISt13random_deviceEEdRT_,"axG",@progbits,_ZNSt25uniform_real_distributionIdEclISt13random_deviceEEdRT_,comdat
	.align 2
	.weak	_ZNSt25uniform_real_distributionIdEclISt13random_deviceEEdRT_
	.type	_ZNSt25uniform_real_distributionIdEclISt13random_deviceEEdRT_, @function
_ZNSt25uniform_real_distributionIdEclISt13random_deviceEEdRT_:
.LFB4002:
	.cfi_startproc
	endbr64
	pushq	%rbp
	.cfi_def_cfa_offset 16
	.cfi_offset 6, -16
	movq	%rsp, %rbp
	.cfi_def_cfa_register 6
	subq	$16, %rsp
	movq	%rdi, -8(%rbp)
	movq	%rsi, -16(%rbp)
	movq	-8(%rbp), %rdx
	movq	-16(%rbp), %rcx
	movq	-8(%rbp), %rax
	movq	%rcx, %rsi
	movq	%rax, %rdi
	call	_ZNSt25uniform_real_distributionIdEclISt13random_deviceEEdRT_RKNS0_10param_typeE
	leave
	.cfi_def_cfa 7, 8
	ret
	.cfi_endproc
.LFE4002:
	.size	_ZNSt25uniform_real_distributionIdEclISt13random_deviceEEdRT_, .-_ZNSt25uniform_real_distributionIdEclISt13random_deviceEEdRT_
	.section	.text._ZN9__gnu_cxx11char_traitsIcE2eqERKcS3_,"axG",@progbits,_ZN9__gnu_cxx11char_traitsIcE2eqERKcS3_,comdat
	.weak	_ZN9__gnu_cxx11char_traitsIcE2eqERKcS3_
	.type	_ZN9__gnu_cxx11char_traitsIcE2eqERKcS3_, @function
_ZN9__gnu_cxx11char_traitsIcE2eqERKcS3_:
.LFB4004:
	.cfi_startproc
	endbr64
	pushq	%rbp
	.cfi_def_cfa_offset 16
	.cfi_offset 6, -16
	movq	%rsp, %rbp
	.cfi_def_cfa_register 6
	movq	%rdi, -8(%rbp)
	movq	%rsi, -16(%rbp)
	movq	-8(%rbp), %rax
	movzbl	(%rax), %edx
	movq	-16(%rbp), %rax
	movzbl	(%rax), %eax
	cmpb	%al, %dl
	sete	%al
	popq	%rbp
	.cfi_def_cfa 7, 8
	ret
	.cfi_endproc
.LFE4004:
	.size	_ZN9__gnu_cxx11char_traitsIcE2eqERKcS3_, .-_ZN9__gnu_cxx11char_traitsIcE2eqERKcS3_
	.section	.text._ZNSt15__new_allocatorIcED2Ev,"axG",@progbits,_ZNSt15__new_allocatorIcED5Ev,comdat
	.align 2
	.weak	_ZNSt15__new_allocatorIcED2Ev
	.type	_ZNSt15__new_allocatorIcED2Ev, @function
_ZNSt15__new_allocatorIcED2Ev:
.LFB4012:
	.cfi_startproc
	endbr64
	pushq	%rbp
	.cfi_def_cfa_offset 16
	.cfi_offset 6, -16
	movq	%rsp, %rbp
	.cfi_def_cfa_register 6
	movq	%rdi, -8(%rbp)
	nop
	popq	%rbp
	.cfi_def_cfa 7, 8
	ret
	.cfi_endproc
.LFE4012:
	.size	_ZNSt15__new_allocatorIcED2Ev, .-_ZNSt15__new_allocatorIcED2Ev
	.weak	_ZNSt15__new_allocatorIcED1Ev
	.set	_ZNSt15__new_allocatorIcED1Ev,_ZNSt15__new_allocatorIcED2Ev
	.section	.text._ZZNSt7__cxx1112basic_stringIcSt11char_traitsIcESaIcEE12_M_constructIPKcEEvT_S8_St20forward_iterator_tagEN6_GuardC2EPS4_,"axG",@progbits,_ZZNSt7__cxx1112basic_stringIcSt11char_traitsIcESaIcEE12_M_constructIPKcEEvT_S8_St20forward_iterator_tagEN6_GuardC5EPS4_,comdat
	.align 2
	.weak	_ZZNSt7__cxx1112basic_stringIcSt11char_traitsIcESaIcEE12_M_constructIPKcEEvT_S8_St20forward_iterator_tagEN6_GuardC2EPS4_
	.type	_ZZNSt7__cxx1112basic_stringIcSt11char_traitsIcESaIcEE12_M_constructIPKcEEvT_S8_St20forward_iterator_tagEN6_GuardC2EPS4_, @function
_ZZNSt7__cxx1112basic_stringIcSt11char_traitsIcESaIcEE12_M_constructIPKcEEvT_S8_St20forward_iterator_tagEN6_GuardC2EPS4_:
.LFB4042:
	.cfi_startproc
	endbr64
	pushq	%rbp
	.cfi_def_cfa_offset 16
	.cfi_offset 6, -16
	movq	%rsp, %rbp
	.cfi_def_cfa_register 6
	movq	%rdi, -8(%rbp)
	movq	%rsi, -16(%rbp)
	movq	-8(%rbp), %rax
	movq	-16(%rbp), %rdx
	movq	%rdx, (%rax)
	nop
	popq	%rbp
	.cfi_def_cfa 7, 8
	ret
	.cfi_endproc
.LFE4042:
	.size	_ZZNSt7__cxx1112basic_stringIcSt11char_traitsIcESaIcEE12_M_constructIPKcEEvT_S8_St20forward_iterator_tagEN6_GuardC2EPS4_, .-_ZZNSt7__cxx1112basic_stringIcSt11char_traitsIcESaIcEE12_M_constructIPKcEEvT_S8_St20forward_iterator_tagEN6_GuardC2EPS4_
	.weak	_ZZNSt7__cxx1112basic_stringIcSt11char_traitsIcESaIcEE12_M_constructIPKcEEvT_S8_St20forward_iterator_tagEN6_GuardC1EPS4_
	.set	_ZZNSt7__cxx1112basic_stringIcSt11char_traitsIcESaIcEE12_M_constructIPKcEEvT_S8_St20forward_iterator_tagEN6_GuardC1EPS4_,_ZZNSt7__cxx1112basic_stringIcSt11char_traitsIcESaIcEE12_M_constructIPKcEEvT_S8_St20forward_iterator_tagEN6_GuardC2EPS4_
	.section	.text._ZZNSt7__cxx1112basic_stringIcSt11char_traitsIcESaIcEE12_M_constructIPKcEEvT_S8_St20forward_iterator_tagEN6_GuardD2Ev,"axG",@progbits,_ZZNSt7__cxx1112basic_stringIcSt11char_traitsIcESaIcEE12_M_constructIPKcEEvT_S8_St20forward_iterator_tagEN6_GuardD5Ev,comdat
	.align 2
	.weak	_ZZNSt7__cxx1112basic_stringIcSt11char_traitsIcESaIcEE12_M_constructIPKcEEvT_S8_St20forward_iterator_tagEN6_GuardD2Ev
	.type	_ZZNSt7__cxx1112basic_stringIcSt11char_traitsIcESaIcEE12_M_constructIPKcEEvT_S8_St20forward_iterator_tagEN6_GuardD2Ev, @function
_ZZNSt7__cxx1112basic_stringIcSt11char_traitsIcESaIcEE12_M_constructIPKcEEvT_S8_St20forward_iterator_tagEN6_GuardD2Ev:
.LFB4045:
	.cfi_startproc
	.cfi_personality 0x9b,DW.ref.__gxx_personality_v0
	.cfi_lsda 0x1b,.LLSDA4045
	endbr64
	pushq	%rbp
	.cfi_def_cfa_offset 16
	.cfi_offset 6, -16
	movq	%rsp, %rbp
	.cfi_def_cfa_register 6
	subq	$16, %rsp
	movq	%rdi, -8(%rbp)
	movq	-8(%rbp), %rax
	movq	(%rax), %rax
	testq	%rax, %rax
	je	.L56
	movq	-8(%rbp), %rax
	movq	(%rax), %rax
	movq	%rax, %rdi
	call	_ZNSt7__cxx1112basic_stringIcSt11char_traitsIcESaIcEE10_M_disposeEv@PLT
.L56:
	nop
	leave
	.cfi_def_cfa 7, 8
	ret
	.cfi_endproc
.LFE4045:
	.section	.gcc_except_table
.LLSDA4045:
	.byte	0xff
	.byte	0xff
	.byte	0x1
	.uleb128 .LLSDACSE4045-.LLSDACSB4045
.LLSDACSB4045:
.LLSDACSE4045:
	.section	.text._ZZNSt7__cxx1112basic_stringIcSt11char_traitsIcESaIcEE12_M_constructIPKcEEvT_S8_St20forward_iterator_tagEN6_GuardD2Ev,"axG",@progbits,_ZZNSt7__cxx1112basic_stringIcSt11char_traitsIcESaIcEE12_M_constructIPKcEEvT_S8_St20forward_iterator_tagEN6_GuardD5Ev,comdat
	.size	_ZZNSt7__cxx1112basic_stringIcSt11char_traitsIcESaIcEE12_M_constructIPKcEEvT_S8_St20forward_iterator_tagEN6_GuardD2Ev, .-_ZZNSt7__cxx1112basic_stringIcSt11char_traitsIcESaIcEE12_M_constructIPKcEEvT_S8_St20forward_iterator_tagEN6_GuardD2Ev
	.weak	_ZZNSt7__cxx1112basic_stringIcSt11char_traitsIcESaIcEE12_M_constructIPKcEEvT_S8_St20forward_iterator_tagEN6_GuardD1Ev
	.set	_ZZNSt7__cxx1112basic_stringIcSt11char_traitsIcESaIcEE12_M_constructIPKcEEvT_S8_St20forward_iterator_tagEN6_GuardD1Ev,_ZZNSt7__cxx1112basic_stringIcSt11char_traitsIcESaIcEE12_M_constructIPKcEEvT_S8_St20forward_iterator_tagEN6_GuardD2Ev
	.section	.text._ZNSt7__cxx1112basic_stringIcSt11char_traitsIcESaIcEE12_M_constructIPKcEEvT_S8_St20forward_iterator_tag,"axG",@progbits,_ZNSt7__cxx1112basic_stringIcSt11char_traitsIcESaIcEE12_M_constructIPKcEEvT_S8_St20forward_iterator_tag,comdat
	.align 2
	.weak	_ZNSt7__cxx1112basic_stringIcSt11char_traitsIcESaIcEE12_M_constructIPKcEEvT_S8_St20forward_iterator_tag
	.type	_ZNSt7__cxx1112basic_stringIcSt11char_traitsIcESaIcEE12_M_constructIPKcEEvT_S8_St20forward_iterator_tag, @function
_ZNSt7__cxx1112basic_stringIcSt11char_traitsIcESaIcEE12_M_constructIPKcEEvT_S8_St20forward_iterator_tag:
.LFB4040:
	.cfi_startproc
	endbr64
	pushq	%rbp
	.cfi_def_cfa_offset 16
	.cfi_offset 6, -16
	movq	%rsp, %rbp
	.cfi_def_cfa_register 6
	subq	$96, %rsp
	movq	%rdi, -72(%rbp)
	movq	%rsi, -80(%rbp)
	movq	%rdx, -88(%rbp)
	movq	%fs:40, %rax
	movq	%rax, -8(%rbp)
	xorl	%eax, %eax
	movq	-80(%rbp), %rax
	movq	%rax, -48(%rbp)
	movq	-88(%rbp), %rax
	movq	%rax, -40(%rbp)
	nop
	movq	-48(%rbp), %rax
	movq	%rax, -32(%rbp)
	movq	-40(%rbp), %rax
	movq	%rax, -24(%rbp)
	movq	-24(%rbp), %rax
	subq	-32(%rbp), %rax
	nop
	movq	%rax, -56(%rbp)
	movq	-56(%rbp), %rax
	cmpq	$15, %rax
	jbe	.L61
	leaq	-56(%rbp), %rcx
	movq	-72(%rbp), %rax
	movl	$0, %edx
	movq	%rcx, %rsi
	movq	%rax, %rdi
	call	_ZNSt7__cxx1112basic_stringIcSt11char_traitsIcESaIcEE9_M_createERmm@PLT
	movq	%rax, %rdx
	movq	-72(%rbp), %rax
	movq	%rdx, %rsi
	movq	%rax, %rdi
	call	_ZNSt7__cxx1112basic_stringIcSt11char_traitsIcESaIcEE7_M_dataEPc@PLT
	movq	-56(%rbp), %rdx
	movq	-72(%rbp), %rax
	movq	%rdx, %rsi
	movq	%rax, %rdi
	call	_ZNSt7__cxx1112basic_stringIcSt11char_traitsIcESaIcEE11_M_capacityEm@PLT
	jmp	.L62
.L61:
	movq	-72(%rbp), %rax
	movq	%rax, -16(%rbp)
	nop
.L62:
	movq	-72(%rbp), %rdx
	leaq	-48(%rbp), %rax
	movq	%rdx, %rsi
	movq	%rax, %rdi
	call	_ZZNSt7__cxx1112basic_stringIcSt11char_traitsIcESaIcEE12_M_constructIPKcEEvT_S8_St20forward_iterator_tagEN6_GuardC1EPS4_
	movq	-72(%rbp), %rax
	movq	%rax, %rdi
	call	_ZNKSt7__cxx1112basic_stringIcSt11char_traitsIcESaIcEE7_M_dataEv@PLT
	movq	%rax, %rcx
	movq	-88(%rbp), %rdx
	movq	-80(%rbp), %rax
	movq	%rax, %rsi
	movq	%rcx, %rdi
	call	_ZNSt7__cxx1112basic_stringIcSt11char_traitsIcESaIcEE13_S_copy_charsEPcPKcS7_@PLT
	movq	$0, -48(%rbp)
	movq	-56(%rbp), %rdx
	movq	-72(%rbp), %rax
	movq	%rdx, %rsi
	movq	%rax, %rdi
	call	_ZNSt7__cxx1112basic_stringIcSt11char_traitsIcESaIcEE13_M_set_lengthEm@PLT
	leaq	-48(%rbp), %rax
	movq	%rax, %rdi
	call	_ZZNSt7__cxx1112basic_stringIcSt11char_traitsIcESaIcEE12_M_constructIPKcEEvT_S8_St20forward_iterator_tagEN6_GuardD1Ev
	movq	-8(%rbp), %rax
	subq	%fs:40, %rax
	je	.L63
	call	__stack_chk_fail@PLT
.L63:
	leave
	.cfi_def_cfa 7, 8
	ret
	.cfi_endproc
.LFE4040:
	.size	_ZNSt7__cxx1112basic_stringIcSt11char_traitsIcESaIcEE12_M_constructIPKcEEvT_S8_St20forward_iterator_tag, .-_ZNSt7__cxx1112basic_stringIcSt11char_traitsIcESaIcEE12_M_constructIPKcEEvT_S8_St20forward_iterator_tag
	.section	.text._ZNSt24uniform_int_distributionIiE10param_typeC2Eii,"axG",@progbits,_ZNSt24uniform_int_distributionIiE10param_typeC5Eii,comdat
	.align 2
	.weak	_ZNSt24uniform_int_distributionIiE10param_typeC2Eii
	.type	_ZNSt24uniform_int_distributionIiE10param_typeC2Eii, @function
_ZNSt24uniform_int_distributionIiE10param_typeC2Eii:
.LFB4166:
	.cfi_startproc
	endbr64
	pushq	%rbp
	.cfi_def_cfa_offset 16
	.cfi_offset 6, -16
	movq	%rsp, %rbp
	.cfi_def_cfa_register 6
	subq	$16, %rsp
	movq	%rdi, -8(%rbp)
	movl	%esi, -12(%rbp)
	movl	%edx, -16(%rbp)
	movq	-8(%rbp), %rax
	movl	-12(%rbp), %edx
	movl	%edx, (%rax)
	movq	-8(%rbp), %rax
	movl	-16(%rbp), %edx
	movl	%edx, 4(%rax)
	call	_ZSt23__is_constant_evaluatedv
	testb	%al, %al
	je	.L65
	movq	-8(%rbp), %rax
	movl	(%rax), %edx
	movq	-8(%rbp), %rax
	movl	4(%rax), %eax
	cmpl	%eax, %edx
	jle	.L65
	movl	$1, %eax
	jmp	.L66
.L65:
	movl	$0, %eax
.L66:
	testb	%al, %al
	nop
	leave
	.cfi_def_cfa 7, 8
	ret
	.cfi_endproc
.LFE4166:
	.size	_ZNSt24uniform_int_distributionIiE10param_typeC2Eii, .-_ZNSt24uniform_int_distributionIiE10param_typeC2Eii
	.weak	_ZNSt24uniform_int_distributionIiE10param_typeC1Eii
	.set	_ZNSt24uniform_int_distributionIiE10param_typeC1Eii,_ZNSt24uniform_int_distributionIiE10param_typeC2Eii
	.section	.text._ZNSt24uniform_int_distributionIiEclISt13random_deviceEEiRT_RKNS0_10param_typeE,"axG",@progbits,_ZNSt24uniform_int_distributionIiEclISt13random_deviceEEiRT_RKNS0_10param_typeE,comdat
	.align 2
	.weak	_ZNSt24uniform_int_distributionIiEclISt13random_deviceEEiRT_RKNS0_10param_typeE
	.type	_ZNSt24uniform_int_distributionIiEclISt13random_deviceEEiRT_RKNS0_10param_typeE, @function
_ZNSt24uniform_int_distributionIiEclISt13random_deviceEEiRT_RKNS0_10param_typeE:
.LFB4169:
	.cfi_startproc
	endbr64
	pushq	%rbp
	.cfi_def_cfa_offset 16
	.cfi_offset 6, -16
	movq	%rsp, %rbp
	.cfi_def_cfa_register 6
	pushq	%rbx
	subq	$88, %rsp
	.cfi_offset 3, -24
	movq	%rdi, -72(%rbp)
	movq	%rsi, -80(%rbp)
	movq	%rdx, -88(%rbp)
	movq	%fs:40, %rax
	movq	%rax, -24(%rbp)
	xorl	%eax, %eax
	movl	$0, -60(%rbp)
	movl	$-1, -52(%rbp)
	movl	$-1, -48(%rbp)
	movq	-88(%rbp), %rax
	movq	%rax, %rdi
	call	_ZNKSt24uniform_int_distributionIiE10param_type1bEv
	movl	%eax, %ebx
	movq	-88(%rbp), %rax
	movq	%rax, %rdi
	call	_ZNKSt24uniform_int_distributionIiE10param_type1aEv
	movl	%eax, %edx
	movl	%ebx, %eax
	subl	%edx, %eax
	movl	%eax, -44(%rbp)
	cmpl	$-1, -44(%rbp)
	je	.L69
	movl	-44(%rbp), %eax
	addl	$1, %eax
	movl	%eax, -40(%rbp)
	movl	-40(%rbp), %eax
	movl	%eax, -36(%rbp)
	movl	-36(%rbp), %edx
	movq	-80(%rbp), %rax
	movl	%edx, %esi
	movq	%rax, %rdi
	call	_ZNSt24uniform_int_distributionIiE5_S_ndImSt13random_devicejEET1_RT0_S3_
	movl	%eax, -56(%rbp)
	jmp	.L70
.L69:
	movq	-80(%rbp), %rax
	movq	%rax, %rdi
	call	_ZNSt13random_deviceclEv
	movl	%eax, -56(%rbp)
.L70:
	movq	-88(%rbp), %rax
	movq	%rax, %rdi
	call	_ZNKSt24uniform_int_distributionIiE10param_type1aEv
	movl	%eax, %edx
	movl	-56(%rbp), %eax
	addl	%edx, %eax
	movq	-24(%rbp), %rdx
	subq	%fs:40, %rdx
	je	.L72
	call	__stack_chk_fail@PLT
.L72:
	movq	-8(%rbp), %rbx
	leave
	.cfi_def_cfa 7, 8
	ret
	.cfi_endproc
.LFE4169:
	.size	_ZNSt24uniform_int_distributionIiEclISt13random_deviceEEiRT_RKNS0_10param_typeE, .-_ZNSt24uniform_int_distributionIiEclISt13random_deviceEEiRT_RKNS0_10param_typeE
	.section	.text._ZNSt25uniform_real_distributionIdE10param_typeC2Edd,"axG",@progbits,_ZNSt25uniform_real_distributionIdE10param_typeC5Edd,comdat
	.align 2
	.weak	_ZNSt25uniform_real_distributionIdE10param_typeC2Edd
	.type	_ZNSt25uniform_real_distributionIdE10param_typeC2Edd, @function
_ZNSt25uniform_real_distributionIdE10param_typeC2Edd:
.LFB4173:
	.cfi_startproc
	endbr64
	pushq	%rbp
	.cfi_def_cfa_offset 16
	.cfi_offset 6, -16
	movq	%rsp, %rbp
	.cfi_def_cfa_register 6
	subq	$32, %rsp
	movq	%rdi, -8(%rbp)
	movsd	%xmm0, -16(%rbp)
	movsd	%xmm1, -24(%rbp)
	movq	-8(%rbp), %rax
	movsd	-16(%rbp), %xmm0
	movsd	%xmm0, (%rax)
	movq	-8(%rbp), %rax
	movsd	-24(%rbp), %xmm0
	movsd	%xmm0, 8(%rax)
	call	_ZSt23__is_constant_evaluatedv
	testb	%al, %al
	je	.L74
	movq	-8(%rbp), %rax
	movsd	(%rax), %xmm1
	movq	-8(%rbp), %rax
	movsd	8(%rax), %xmm0
	comisd	%xmm1, %xmm0
	setnb	%al
	xorl	$1, %eax
	testb	%al, %al
	je	.L74
	movl	$1, %eax
	jmp	.L75
.L74:
	movl	$0, %eax
.L75:
	testb	%al, %al
	nop
	leave
	.cfi_def_cfa 7, 8
	ret
	.cfi_endproc
.LFE4173:
	.size	_ZNSt25uniform_real_distributionIdE10param_typeC2Edd, .-_ZNSt25uniform_real_distributionIdE10param_typeC2Edd
	.weak	_ZNSt25uniform_real_distributionIdE10param_typeC1Edd
	.set	_ZNSt25uniform_real_distributionIdE10param_typeC1Edd,_ZNSt25uniform_real_distributionIdE10param_typeC2Edd
	.section	.text._ZNSt25uniform_real_distributionIdEclISt13random_deviceEEdRT_RKNS0_10param_typeE,"axG",@progbits,_ZNSt25uniform_real_distributionIdEclISt13random_deviceEEdRT_RKNS0_10param_typeE,comdat
	.align 2
	.weak	_ZNSt25uniform_real_distributionIdEclISt13random_deviceEEdRT_RKNS0_10param_typeE
	.type	_ZNSt25uniform_real_distributionIdEclISt13random_deviceEEdRT_RKNS0_10param_typeE, @function
_ZNSt25uniform_real_distributionIdEclISt13random_deviceEEdRT_RKNS0_10param_typeE:
.LFB4175:
	.cfi_startproc
	endbr64
	pushq	%rbp
	.cfi_def_cfa_offset 16
	.cfi_offset 6, -16
	movq	%rsp, %rbp
	.cfi_def_cfa_register 6
	pushq	%rbx
	subq	$56, %rsp
	.cfi_offset 3, -24
	movq	%rdi, -40(%rbp)
	movq	%rsi, -48(%rbp)
	movq	%rdx, -56(%rbp)
	movq	%fs:40, %rax
	movq	%rax, -24(%rbp)
	xorl	%eax, %eax
	movq	-48(%rbp), %rdx
	leaq	-32(%rbp), %rax
	movq	%rdx, %rsi
	movq	%rax, %rdi
	call	_ZNSt8__detail8_AdaptorISt13random_devicedEC1ERS1_
	leaq	-32(%rbp), %rax
	movq	%rax, %rdi
	call	_ZNSt8__detail8_AdaptorISt13random_devicedEclEv
	movsd	%xmm0, -64(%rbp)
	movq	-56(%rbp), %rax
	movq	%rax, %rdi
	call	_ZNKSt25uniform_real_distributionIdE10param_type1bEv
	movq	%xmm0, %rbx
	movq	-56(%rbp), %rax
	movq	%rax, %rdi
	call	_ZNKSt25uniform_real_distributionIdE10param_type1aEv
	movq	%rbx, %xmm1
	subsd	%xmm0, %xmm1
	mulsd	-64(%rbp), %xmm1
	movsd	%xmm1, -64(%rbp)
	movq	-56(%rbp), %rax
	movq	%rax, %rdi
	call	_ZNKSt25uniform_real_distributionIdE10param_type1aEv
	addsd	-64(%rbp), %xmm0
	movq	-24(%rbp), %rax
	subq	%fs:40, %rax
	je	.L79
	call	__stack_chk_fail@PLT
.L79:
	movq	-8(%rbp), %rbx
	leave
	.cfi_def_cfa 7, 8
	ret
	.cfi_endproc
.LFE4175:
	.size	_ZNSt25uniform_real_distributionIdEclISt13random_deviceEEdRT_RKNS0_10param_typeE, .-_ZNSt25uniform_real_distributionIdEclISt13random_deviceEEdRT_RKNS0_10param_typeE
	.section	.text._ZNKSt24uniform_int_distributionIiE10param_type1bEv,"axG",@progbits,_ZNKSt24uniform_int_distributionIiE10param_type1bEv,comdat
	.align 2
	.weak	_ZNKSt24uniform_int_distributionIiE10param_type1bEv
	.type	_ZNKSt24uniform_int_distributionIiE10param_type1bEv, @function
_ZNKSt24uniform_int_distributionIiE10param_type1bEv:
.LFB4277:
	.cfi_startproc
	endbr64
	pushq	%rbp
	.cfi_def_cfa_offset 16
	.cfi_offset 6, -16
	movq	%rsp, %rbp
	.cfi_def_cfa_register 6
	movq	%rdi, -8(%rbp)
	movq	-8(%rbp), %rax
	movl	4(%rax), %eax
	popq	%rbp
	.cfi_def_cfa 7, 8
	ret
	.cfi_endproc
.LFE4277:
	.size	_ZNKSt24uniform_int_distributionIiE10param_type1bEv, .-_ZNKSt24uniform_int_distributionIiE10param_type1bEv
	.section	.text._ZNKSt24uniform_int_distributionIiE10param_type1aEv,"axG",@progbits,_ZNKSt24uniform_int_distributionIiE10param_type1aEv,comdat
	.align 2
	.weak	_ZNKSt24uniform_int_distributionIiE10param_type1aEv
	.type	_ZNKSt24uniform_int_distributionIiE10param_type1aEv, @function
_ZNKSt24uniform_int_distributionIiE10param_type1aEv:
.LFB4278:
	.cfi_startproc
	endbr64
	pushq	%rbp
	.cfi_def_cfa_offset 16
	.cfi_offset 6, -16
	movq	%rsp, %rbp
	.cfi_def_cfa_register 6
	movq	%rdi, -8(%rbp)
	movq	-8(%rbp), %rax
	movl	(%rax), %eax
	popq	%rbp
	.cfi_def_cfa 7, 8
	ret
	.cfi_endproc
.LFE4278:
	.size	_ZNKSt24uniform_int_distributionIiE10param_type1aEv, .-_ZNKSt24uniform_int_distributionIiE10param_type1aEv
	.section	.text._ZNSt24uniform_int_distributionIiE5_S_ndImSt13random_devicejEET1_RT0_S3_,"axG",@progbits,_ZNSt24uniform_int_distributionIiE5_S_ndImSt13random_devicejEET1_RT0_S3_,comdat
	.weak	_ZNSt24uniform_int_distributionIiE5_S_ndImSt13random_devicejEET1_RT0_S3_
	.type	_ZNSt24uniform_int_distributionIiE5_S_ndImSt13random_devicejEET1_RT0_S3_, @function
_ZNSt24uniform_int_distributionIiE5_S_ndImSt13random_devicejEET1_RT0_S3_:
.LFB4279:
	.cfi_startproc
	endbr64
	pushq	%rbp
	.cfi_def_cfa_offset 16
	.cfi_offset 6, -16
	movq	%rsp, %rbp
	.cfi_def_cfa_register 6
	subq	$32, %rsp
	movq	%rdi, -24(%rbp)
	movl	%esi, -28(%rbp)
	movq	-24(%rbp), %rax
	movq	%rax, %rdi
	call	_ZNSt13random_deviceclEv
	movl	%eax, %edx
	movl	-28(%rbp), %eax
	imulq	%rdx, %rax
	movq	%rax, -8(%rbp)
	movq	-8(%rbp), %rax
	movl	%eax, -16(%rbp)
	movl	-16(%rbp), %eax
	cmpl	-28(%rbp), %eax
	jnb	.L85
	movl	-28(%rbp), %eax
	negl	%eax
	movl	$0, %edx
	divl	-28(%rbp)
	movl	%edx, -12(%rbp)
	jmp	.L86
.L87:
	movq	-24(%rbp), %rax
	movq	%rax, %rdi
	call	_ZNSt13random_deviceclEv
	movl	%eax, %edx
	movl	-28(%rbp), %eax
	imulq	%rdx, %rax
	movq	%rax, -8(%rbp)
	movq	-8(%rbp), %rax
	movl	%eax, -16(%rbp)
.L86:
	movl	-16(%rbp), %eax
	cmpl	-12(%rbp), %eax
	jb	.L87
.L85:
	movq	-8(%rbp), %rax
	shrq	$32, %rax
	leave
	.cfi_def_cfa 7, 8
	ret
	.cfi_endproc
.LFE4279:
	.size	_ZNSt24uniform_int_distributionIiE5_S_ndImSt13random_devicejEET1_RT0_S3_, .-_ZNSt24uniform_int_distributionIiE5_S_ndImSt13random_devicejEET1_RT0_S3_
	.section	.text._ZNSt8__detail8_AdaptorISt13random_devicedEC2ERS1_,"axG",@progbits,_ZNSt8__detail8_AdaptorISt13random_devicedEC5ERS1_,comdat
	.align 2
	.weak	_ZNSt8__detail8_AdaptorISt13random_devicedEC2ERS1_
	.type	_ZNSt8__detail8_AdaptorISt13random_devicedEC2ERS1_, @function
_ZNSt8__detail8_AdaptorISt13random_devicedEC2ERS1_:
.LFB4282:
	.cfi_startproc
	endbr64
	pushq	%rbp
	.cfi_def_cfa_offset 16
	.cfi_offset 6, -16
	movq	%rsp, %rbp
	.cfi_def_cfa_register 6
	movq	%rdi, -8(%rbp)
	movq	%rsi, -16(%rbp)
	movq	-8(%rbp), %rax
	movq	-16(%rbp), %rdx
	movq	%rdx, (%rax)
	nop
	popq	%rbp
	.cfi_def_cfa 7, 8
	ret
	.cfi_endproc
.LFE4282:
	.size	_ZNSt8__detail8_AdaptorISt13random_devicedEC2ERS1_, .-_ZNSt8__detail8_AdaptorISt13random_devicedEC2ERS1_
	.weak	_ZNSt8__detail8_AdaptorISt13random_devicedEC1ERS1_
	.set	_ZNSt8__detail8_AdaptorISt13random_devicedEC1ERS1_,_ZNSt8__detail8_AdaptorISt13random_devicedEC2ERS1_
	.section	.text._ZNSt8__detail8_AdaptorISt13random_devicedEclEv,"axG",@progbits,_ZNSt8__detail8_AdaptorISt13random_devicedEclEv,comdat
	.align 2
	.weak	_ZNSt8__detail8_AdaptorISt13random_devicedEclEv
	.type	_ZNSt8__detail8_AdaptorISt13random_devicedEclEv, @function
_ZNSt8__detail8_AdaptorISt13random_devicedEclEv:
.LFB4284:
	.cfi_startproc
	endbr64
	pushq	%rbp
	.cfi_def_cfa_offset 16
	.cfi_offset 6, -16
	movq	%rsp, %rbp
	.cfi_def_cfa_register 6
	subq	$16, %rsp
	movq	%rdi, -8(%rbp)
	movq	-8(%rbp), %rax
	movq	(%rax), %rax
	movq	%rax, %rdi
	call	_ZSt18generate_canonicalIdLm53ESt13random_deviceET_RT1_
	leave
	.cfi_def_cfa 7, 8
	ret
	.cfi_endproc
.LFE4284:
	.size	_ZNSt8__detail8_AdaptorISt13random_devicedEclEv, .-_ZNSt8__detail8_AdaptorISt13random_devicedEclEv
	.section	.text._ZNKSt25uniform_real_distributionIdE10param_type1bEv,"axG",@progbits,_ZNKSt25uniform_real_distributionIdE10param_type1bEv,comdat
	.align 2
	.weak	_ZNKSt25uniform_real_distributionIdE10param_type1bEv
	.type	_ZNKSt25uniform_real_distributionIdE10param_type1bEv, @function
_ZNKSt25uniform_real_distributionIdE10param_type1bEv:
.LFB4285:
	.cfi_startproc
	endbr64
	pushq	%rbp
	.cfi_def_cfa_offset 16
	.cfi_offset 6, -16
	movq	%rsp, %rbp
	.cfi_def_cfa_register 6
	movq	%rdi, -8(%rbp)
	movq	-8(%rbp), %rax
	movsd	8(%rax), %xmm0
	popq	%rbp
	.cfi_def_cfa 7, 8
	ret
	.cfi_endproc
.LFE4285:
	.size	_ZNKSt25uniform_real_distributionIdE10param_type1bEv, .-_ZNKSt25uniform_real_distributionIdE10param_type1bEv
	.section	.text._ZNKSt25uniform_real_distributionIdE10param_type1aEv,"axG",@progbits,_ZNKSt25uniform_real_distributionIdE10param_type1aEv,comdat
	.align 2
	.weak	_ZNKSt25uniform_real_distributionIdE10param_type1aEv
	.type	_ZNKSt25uniform_real_distributionIdE10param_type1aEv, @function
_ZNKSt25uniform_real_distributionIdE10param_type1aEv:
.LFB4286:
	.cfi_startproc
	endbr64
	pushq	%rbp
	.cfi_def_cfa_offset 16
	.cfi_offset 6, -16
	movq	%rsp, %rbp
	.cfi_def_cfa_register 6
	movq	%rdi, -8(%rbp)
	movq	-8(%rbp), %rax
	movsd	(%rax), %xmm0
	popq	%rbp
	.cfi_def_cfa 7, 8
	ret
	.cfi_endproc
.LFE4286:
	.size	_ZNKSt25uniform_real_distributionIdE10param_type1aEv, .-_ZNKSt25uniform_real_distributionIdE10param_type1aEv
	.section	.text._ZSt3maxImERKT_S2_S2_,"axG",@progbits,_ZSt3maxImERKT_S2_S2_,comdat
	.weak	_ZSt3maxImERKT_S2_S2_
	.type	_ZSt3maxImERKT_S2_S2_, @function
_ZSt3maxImERKT_S2_S2_:
.LFB4357:
	.cfi_startproc
	endbr64
	pushq	%rbp
	.cfi_def_cfa_offset 16
	.cfi_offset 6, -16
	movq	%rsp, %rbp
	.cfi_def_cfa_register 6
	movq	%rdi, -8(%rbp)
	movq	%rsi, -16(%rbp)
	movq	-8(%rbp), %rax
	movq	(%rax), %rdx
	movq	-16(%rbp), %rax
	movq	(%rax), %rax
	cmpq	%rax, %rdx
	jnb	.L97
	movq	-16(%rbp), %rax
	jmp	.L98
.L97:
	movq	-8(%rbp), %rax
.L98:
	popq	%rbp
	.cfi_def_cfa 7, 8
	ret
	.cfi_endproc
.LFE4357:
	.size	_ZSt3maxImERKT_S2_S2_, .-_ZSt3maxImERKT_S2_S2_
	.section	.text._ZSt18generate_canonicalIdLm53ESt13random_deviceET_RT1_,"axG",@progbits,_ZSt18generate_canonicalIdLm53ESt13random_deviceET_RT1_,comdat
	.weak	_ZSt18generate_canonicalIdLm53ESt13random_deviceET_RT1_
	.type	_ZSt18generate_canonicalIdLm53ESt13random_deviceET_RT1_, @function
_ZSt18generate_canonicalIdLm53ESt13random_deviceET_RT1_:
.LFB4355:
	.cfi_startproc
	endbr64
	pushq	%rbp
	.cfi_def_cfa_offset 16
	.cfi_offset 6, -16
	movq	%rsp, %rbp
	.cfi_def_cfa_register 6
	pushq	%rbx
	subq	$152, %rsp
	.cfi_offset 3, -24
	movq	%rdi, -136(%rbp)
	movq	%fs:40, %rax
	movq	%rax, -24(%rbp)
	xorl	%eax, %eax
	movq	$53, -72(%rbp)
	fldt	.LC7(%rip)
	fstpt	-48(%rbp)
	fldt	.LC7(%rip)
	leaq	-16(%rsp), %rsp
	fstpt	(%rsp)
	call	_ZSt3loge
	addq	$16, %rsp
	fstpt	-160(%rbp)
	fldt	.LC8(%rip)
	leaq	-16(%rsp), %rsp
	fstpt	(%rsp)
	call	_ZSt3loge
	addq	$16, %rsp
	fldt	-160(%rbp)
	fdivp	%st, %st(1)
	fldt	.LC9(%rip)
	fxch	%st(1)
	fcomi	%st(1), %st
	fstp	%st(1)
	jnb	.L100
	fnstcw	-138(%rbp)
	movzwl	-138(%rbp), %eax
	orb	$12, %ah
	movw	%ax, -140(%rbp)
	fldcw	-140(%rbp)
	fistpq	-64(%rbp)
	fldcw	-138(%rbp)
	jmp	.L101
.L100:
	fldt	.LC9(%rip)
	fsubrp	%st, %st(1)
	fnstcw	-138(%rbp)
	movzwl	-138(%rbp), %eax
	orb	$12, %ah
	movw	%ax, -140(%rbp)
	fldcw	-140(%rbp)
	fistpq	-64(%rbp)
	fldcw	-138(%rbp)
	movabsq	$-9223372036854775808, %rax
	xorq	%rax, -64(%rbp)
.L101:
	movq	-64(%rbp), %rax
	movq	%rax, -64(%rbp)
	movq	-64(%rbp), %rax
	addq	$52, %rax
	movl	$0, %edx
	divq	-64(%rbp)
	movq	%rax, -112(%rbp)
	movq	$1, -120(%rbp)
	leaq	-112(%rbp), %rdx
	leaq	-120(%rbp), %rax
	movq	%rdx, %rsi
	movq	%rax, %rdi
	call	_ZSt3maxImERKT_S2_S2_
	movq	(%rax), %rax
	movq	%rax, -56(%rbp)
	pxor	%xmm0, %xmm0
	movsd	%xmm0, -96(%rbp)
	movsd	.LC10(%rip), %xmm0
	movsd	%xmm0, -88(%rbp)
	movq	-56(%rbp), %rax
	movq	%rax, -80(%rbp)
	jmp	.L102
.L105:
	movq	-136(%rbp), %rax
	movq	%rax, %rdi
	call	_ZNSt13random_deviceclEv
	movl	%eax, %ebx
	call	_ZNSt13random_device3minEv
	subl	%eax, %ebx
	movl	%ebx, %edx
	movl	%edx, %eax
	testq	%rax, %rax
	js	.L103
	pxor	%xmm0, %xmm0
	cvtsi2sdq	%rax, %xmm0
	jmp	.L104
.L103:
	movq	%rax, %rdx
	shrq	%rdx
	andl	$1, %eax
	orq	%rax, %rdx
	pxor	%xmm0, %xmm0
	cvtsi2sdq	%rdx, %xmm0
	addsd	%xmm0, %xmm0
.L104:
	mulsd	-88(%rbp), %xmm0
	movsd	-96(%rbp), %xmm1
	addsd	%xmm1, %xmm0
	movsd	%xmm0, -96(%rbp)
	fldl	-88(%rbp)
	fldt	.LC7(%rip)
	fmulp	%st, %st(1)
	fstpl	-88(%rbp)
	subq	$1, -80(%rbp)
.L102:
	cmpq	$0, -80(%rbp)
	jne	.L105
	movsd	-96(%rbp), %xmm0
	divsd	-88(%rbp), %xmm0
	movsd	%xmm0, -104(%rbp)
	movsd	-104(%rbp), %xmm0
	movsd	.LC10(%rip), %xmm1
	comisd	%xmm1, %xmm0
	setnb	%al
	movzbl	%al, %eax
	testq	%rax, %rax
	je	.L106
	movsd	.LC11(%rip), %xmm0
	movsd	%xmm0, -104(%rbp)
.L106:
	movsd	-104(%rbp), %xmm0
	movq	-24(%rbp), %rax
	subq	%fs:40, %rax
	je	.L109
	call	__stack_chk_fail@PLT
.L109:
	movq	-8(%rbp), %rbx
	leave
	.cfi_def_cfa 7, 8
	ret
	.cfi_endproc
.LFE4355:
	.size	_ZSt18generate_canonicalIdLm53ESt13random_deviceET_RT1_, .-_ZSt18generate_canonicalIdLm53ESt13random_deviceET_RT1_
	.section	.rodata
	.type	_ZNSt8__detail30__integer_to_chars_is_unsignedIjEE, @object
	.size	_ZNSt8__detail30__integer_to_chars_is_unsignedIjEE, 1
_ZNSt8__detail30__integer_to_chars_is_unsignedIjEE:
	.byte	1
	.type	_ZNSt8__detail30__integer_to_chars_is_unsignedImEE, @object
	.size	_ZNSt8__detail30__integer_to_chars_is_unsignedImEE, 1
_ZNSt8__detail30__integer_to_chars_is_unsignedImEE:
	.byte	1
	.type	_ZNSt8__detail30__integer_to_chars_is_unsignedIyEE, @object
	.size	_ZNSt8__detail30__integer_to_chars_is_unsignedIyEE, 1
_ZNSt8__detail30__integer_to_chars_is_unsignedIyEE:
	.byte	1
	.align 8
.LC3:
	.long	0
	.long	1079574528
	.align 8
.LC4:
	.long	0
	.long	0
	.align 16
.LC7:
	.long	0
	.long	-2147483648
	.long	16415
	.long	0
	.align 16
.LC8:
	.long	0
	.long	-2147483648
	.long	16384
	.long	0
	.align 16
.LC9:
	.long	0
	.long	-2147483648
	.long	16446
	.long	0
	.align 8
.LC10:
	.long	0
	.long	1072693248
	.align 8
.LC11:
	.long	-1
	.long	1072693247
	.hidden	DW.ref.__gxx_personality_v0
	.weak	DW.ref.__gxx_personality_v0
	.section	.data.rel.local.DW.ref.__gxx_personality_v0,"awG",@progbits,DW.ref.__gxx_personality_v0,comdat
	.align 8
	.type	DW.ref.__gxx_personality_v0, @object
	.size	DW.ref.__gxx_personality_v0, 8
DW.ref.__gxx_personality_v0:
	.quad	__gxx_personality_v0
	.ident	"GCC: (Ubuntu 13.3.0-6ubuntu2~24.04) 13.3.0"
	.section	.note.GNU-stack,"",@progbits
	.section	.note.gnu.property,"a"
	.align 8
	.long	1f - 0f
	.long	4f - 1f
	.long	5
0:
	.string	"GNU"
1:
	.align 8
	.long	0xc0000002
	.long	3f - 2f
2:
	.long	0x3
3:
	.align 8
4:
